target datalayout = "e-m:e-p270:32:32-p271:32:32-p272:64:64-i64:64-i128:128-f80:128-n8:16:32:64-S128"
target triple = "x86_64-pc-linux-gnu"

%struct.dt_action_def_t = type { ptr, ptr, ptr, ptr, i32 }
%struct.dt_pthread_mutex_t = type { %union.pthread_mutex_t }
%union.pthread_mutex_t = type { %struct.__pthread_mutex_s }
%struct.__pthread_mutex_s = type { i32, i32, i32, i32, i32, i16, i16, %struct.__pthread_internal_list }
%struct.__pthread_internal_list = type { ptr, ptr }
%struct.dt_iop_module_t = type { i32, ptr, ptr, ptr, ptr, ptr, ptr, ptr, ptr, ptr, ptr, ptr, ptr, ptr, ptr, ptr, ptr, ptr, ptr, ptr, ptr, ptr, ptr, ptr, ptr, ptr, ptr, ptr, ptr, ptr, ptr, ptr, ptr, ptr, ptr, ptr, ptr, ptr, ptr, ptr, ptr, ptr, ptr, ptr, ptr, ptr, ptr, ptr, ptr, ptr, ptr, ptr, ptr, ptr, ptr, ptr, ptr, [20 x i8], i32, i32, i32, i32, i32, i32, i32, [8 x i8], [4 x float], [4 x float], [4 x float], [4 x float], [4 x float], [4 x float], ptr, %struct.dt_dev_histogram_stats_t, [4 x i32], i32, i32, ptr, i32, i32, ptr, ptr, i32, ptr, %struct.dt_pthread_mutex_t, ptr, ptr, ptr, ptr, %struct.anon, ptr, ptr, ptr, ptr, ptr, ptr, ptr, i32, ptr, ptr, ptr, ptr, ptr, ptr, ptr, i32, ptr, i32, [128 x i8], i32, ptr, ptr, i32, [12 x i8] }
%struct.dt_dev_histogram_stats_t = type { i32, i64, i32, i32 }
%struct.anon = type { %struct.anon.0, %struct.anon.1 }
%struct.anon.0 = type { ptr, ptr }
%struct.anon.1 = type { ptr, i32 }
%struct.dt_iop_module_so_t = type { %struct.dt_action_t, ptr, ptr, ptr, ptr, ptr, ptr, ptr, ptr, ptr, ptr, ptr, ptr, ptr, ptr, ptr, ptr, ptr, ptr, ptr, ptr, ptr, ptr, ptr, ptr, ptr, ptr, ptr, ptr, ptr, ptr, ptr, ptr, ptr, ptr, ptr, ptr, ptr, ptr, ptr, ptr, ptr, ptr, ptr, ptr, ptr, ptr, ptr, ptr, ptr, ptr, ptr, ptr, ptr, ptr, ptr, ptr, [20 x i8], ptr, i32, ptr, i32, i32 }
%struct.dt_action_t = type { i32, ptr, ptr, ptr, ptr, ptr }
%struct.dt_introspection_type_header_t = type { i32, ptr, ptr, ptr, ptr, i64, i64, ptr }
%struct.dt_iop_module_section_t = type { i32, ptr, ptr }
%struct.dt_introspection_t = type { i32, i32, ptr, i64, ptr, i64, i64, ptr }
%struct.dt_module_param_t = type { ptr, ptr }

@.str.2 = private unnamed_addr constant [2 x i8] c"_\00", align 1
@.str.3 = private unnamed_addr constant [2 x i8] c" \00", align 1
@.str.5 = private unnamed_addr constant [123 x i8] c"generated/home/dtcxzyw/WorkSpace/Projects/compilers/llvm-opt-benchmark/bench/darktable/darktable/src/develop/imageop_gui.c\00", align 1
@.str.9 = private unnamed_addr constant [8 x i8] c"toggled\00", align 1
@dt_action_def_toggle = external constant %struct.dt_action_def_t, align 8
@.str.10 = private unnamed_addr constant [42 x i8] c"'%s' is not a bool/togglebutton parameter\00", align 1
@__FUNCTION__.dt_bauhaus_toggle_from_params = private unnamed_addr constant [30 x i8] c"dt_bauhaus_toggle_from_params\00", align 1

; Function Attrs: nounwind uwtable
define internal void @_store_intro_section(ptr noundef %0, ptr noundef %1) #0 {
  %3 = alloca ptr, align 8
  %4 = alloca ptr, align 8
  %5 = alloca ptr, align 8
  store ptr %0, ptr %3, align 8, !tbaa !39
  store ptr %1, ptr %4, align 8, !tbaa !11
  %6 = load ptr, ptr %4, align 8, !tbaa !11
  %7 = icmp ne ptr %6, null
  br i1 %7, label %8, label %31

8:                                                ; preds = %2
  call void @llvm.lifetime.start.p0(i64 8, ptr %5) #9
  %9 = load ptr, ptr %3, align 8, !tbaa !39
  %10 = getelementptr inbounds nuw %struct.dt_introspection_type_header_t, ptr %9, i32 0, i32 7
  %11 = load ptr, ptr %10, align 8, !tbaa !42
  %12 = getelementptr inbounds nuw %struct.dt_iop_module_so_t, ptr %11, i32 0, i32 51
  %13 = load ptr, ptr %12, align 8, !tbaa !56
  %14 = call ptr %13()
  %15 = getelementptr inbounds nuw %struct.dt_introspection_t, ptr %14, i32 0, i32 7
  store ptr %15, ptr %5, align 8, !tbaa !57
  %16 = load ptr, ptr %5, align 8, !tbaa !57
  %17 = load ptr, ptr %16, align 8, !tbaa !59
  %18 = icmp ne ptr %17, null
  br i1 %18, label %22, label %19

19:                                               ; preds = %8
  %20 = call ptr @g_hash_table_new(ptr noundef null, ptr noundef null)
  %21 = load ptr, ptr %5, align 8, !tbaa !57
  store ptr %20, ptr %21, align 8, !tbaa !59
  br label %22

22:                                               ; preds = %19, %8
  %23 = load ptr, ptr %5, align 8, !tbaa !57
  %24 = load ptr, ptr %23, align 8, !tbaa !59
  %25 = load ptr, ptr %3, align 8, !tbaa !39
  %26 = getelementptr inbounds nuw %struct.dt_introspection_type_header_t, ptr %25, i32 0, i32 6
  %27 = load i64, ptr %26, align 8, !tbaa !42
  %28 = inttoptr i64 %27 to ptr
  %29 = load ptr, ptr %4, align 8, !tbaa !11
  %30 = call i32 @g_hash_table_insert(ptr noundef %24, ptr noundef %28, ptr noundef %29)
  call void @llvm.lifetime.end.p0(i64 8, ptr %5) #9
  br label %31

31:                                               ; preds = %22, %2
  ret void
}

; Function Attrs: nounwind uwtable
define internal ptr @_section_from_package(ptr noundef %0) #0 {
  %2 = alloca ptr, align 8
  %3 = alloca ptr, align 8
  %4 = alloca ptr, align 8
  store ptr %0, ptr %3, align 8, !tbaa !48
  %5 = load ptr, ptr %3, align 8, !tbaa !48
  %6 = load ptr, ptr %5, align 8, !tbaa !6
  %7 = getelementptr inbounds nuw %struct.dt_iop_module_t, ptr %6, i32 0, i32 0
  %8 = load i32, ptr %7, align 16, !tbaa !50
  %9 = icmp ne i32 %8, 8
  br i1 %9, label %10, label %11

10:                                               ; preds = %1
  store ptr null, ptr %2, align 8
  br label %21

11:                                               ; preds = %1
  call void @llvm.lifetime.start.p0(i64 8, ptr %4) #9
  %12 = load ptr, ptr %3, align 8, !tbaa !48
  %13 = load ptr, ptr %12, align 8, !tbaa !6
  store ptr %13, ptr %4, align 8, !tbaa !51
  %14 = load ptr, ptr %4, align 8, !tbaa !51
  %15 = getelementptr inbounds nuw %struct.dt_iop_module_section_t, ptr %14, i32 0, i32 1
  %16 = load ptr, ptr %15, align 8, !tbaa !53
  %17 = load ptr, ptr %3, align 8, !tbaa !48
  store ptr %16, ptr %17, align 8, !tbaa !6
  %18 = load ptr, ptr %4, align 8, !tbaa !51
  %19 = getelementptr inbounds nuw %struct.dt_iop_module_section_t, ptr %18, i32 0, i32 2
  %20 = load ptr, ptr %19, align 8, !tbaa !55
  store ptr %20, ptr %2, align 8
  call void @llvm.lifetime.end.p0(i64 8, ptr %4) #9
  br label %21

21:                                               ; preds = %11, %10
  %22 = load ptr, ptr %2, align 8
  ret ptr %22
}

; Function Attrs: nounwind uwtable
define ptr @dt_bauhaus_toggle_from_params(ptr noundef %0, ptr noundef %1) #0 {
  %3 = alloca ptr, align 8
  %4 = alloca ptr, align 8
  %5 = alloca ptr, align 8
  %6 = alloca ptr, align 8
  %7 = alloca ptr, align 8
  %8 = alloca ptr, align 8
  %9 = alloca ptr, align 8
  %10 = alloca ptr, align 8
  %11 = alloca ptr, align 8
  %12 = alloca [2 x ptr], align 8
  store ptr %0, ptr %3, align 8, !tbaa !6
  store ptr %1, ptr %4, align 8, !tbaa !11
  call void @llvm.lifetime.start.p0(i64 8, ptr %5) #9
  %13 = call ptr @_section_from_package(ptr noundef %3)
  store ptr %13, ptr %5, align 8, !tbaa !11
  call void @llvm.lifetime.start.p0(i64 8, ptr %6) #9
  %14 = load ptr, ptr %3, align 8, !tbaa !6
  %15 = getelementptr inbounds nuw %struct.dt_iop_module_t, ptr %14, i32 0, i32 80
  %16 = load ptr, ptr %15, align 8, !tbaa !13
  store ptr %16, ptr %6, align 8, !tbaa !30
  call void @llvm.lifetime.start.p0(i64 8, ptr %7) #9
  %17 = load ptr, ptr %3, align 8, !tbaa !6
  %18 = getelementptr inbounds nuw %struct.dt_iop_module_t, ptr %17, i32 0, i32 106
  %19 = load ptr, ptr %18, align 16, !tbaa !34
  %20 = getelementptr inbounds nuw %struct.dt_iop_module_so_t, ptr %19, i32 0, i32 54
  %21 = load ptr, ptr %20, align 8, !tbaa !35
  %22 = load ptr, ptr %4, align 8, !tbaa !11
  %23 = call ptr %21(ptr noundef %22)
  store ptr %23, ptr %7, align 8, !tbaa !39
  call void @llvm.lifetime.start.p0(i64 8, ptr %8) #9
  store ptr null, ptr %8, align 8, !tbaa !41
  call void @llvm.lifetime.start.p0(i64 8, ptr %9) #9
  store ptr null, ptr %9, align 8, !tbaa !11
  %24 = load ptr, ptr %7, align 8, !tbaa !39
  %25 = icmp ne ptr %24, null
  br i1 %25, label %26, label %81

26:                                               ; preds = %2
  %27 = load ptr, ptr %7, align 8, !tbaa !39
  %28 = getelementptr inbounds nuw %struct.dt_introspection_type_header_t, ptr %27, i32 0, i32 0
  %29 = load i32, ptr %28, align 8, !tbaa !42
  %30 = icmp eq i32 %29, 14
  br i1 %30, label %31, label %81

31:                                               ; preds = %26
  %32 = load ptr, ptr %7, align 8, !tbaa !39
  %33 = getelementptr inbounds nuw %struct.dt_introspection_type_header_t, ptr %32, i32 0, i32 4
  %34 = load ptr, ptr %33, align 8, !tbaa !42
  %35 = load i8, ptr %34, align 1, !tbaa !42
  %36 = sext i8 %35 to i32
  %37 = icmp ne i32 %36, 0
  br i1 %37, label %38, label %43

38:                                               ; preds = %31
  %39 = load ptr, ptr %7, align 8, !tbaa !39
  %40 = getelementptr inbounds nuw %struct.dt_introspection_type_header_t, ptr %39, i32 0, i32 4
  %41 = load ptr, ptr %40, align 8, !tbaa !42
  %42 = call noalias ptr @g_strdup(ptr noundef %41)
  br label %46

43:                                               ; preds = %31
  %44 = load ptr, ptr %4, align 8, !tbaa !11
  %45 = call ptr @dt_util_str_replace(ptr noundef %44, ptr noundef @.str.2, ptr noundef @.str.3)
  br label %46

46:                                               ; preds = %43, %38
  %47 = phi ptr [ %42, %38 ], [ %45, %43 ]
  store ptr %47, ptr %9, align 8, !tbaa !11
  call void @llvm.lifetime.start.p0(i64 8, ptr %10) #9
  %48 = load ptr, ptr %9, align 8, !tbaa !11
  %49 = call ptr @dcgettext(ptr noundef null, ptr noundef %48, i32 noundef 5) #9
  %50 = call ptr @gtk_label_new(ptr noundef %49)
  store ptr %50, ptr %10, align 8, !tbaa !41
  %51 = load ptr, ptr %10, align 8, !tbaa !41
  %52 = call i64 @gtk_label_get_type() #12
  %53 = call ptr @g_type_check_instance_cast(ptr noundef %51, i64 noundef %52)
  call void @gtk_label_set_ellipsize(ptr noundef %53, i32 noundef 3)
  %54 = call ptr @gtk_check_button_new()
  store ptr %54, ptr %8, align 8, !tbaa !41
  %55 = load ptr, ptr %8, align 8, !tbaa !41
  %56 = call i64 @gtk_container_get_type() #12
  %57 = call ptr @g_type_check_instance_cast(ptr noundef %55, i64 noundef %56)
  %58 = load ptr, ptr %10, align 8, !tbaa !41
  call void @gtk_container_add(ptr noundef %57, ptr noundef %58)
  call void @llvm.lifetime.start.p0(i64 8, ptr %11) #9
  %59 = call noalias ptr @g_malloc(i64 noundef 16) #11
  store ptr %59, ptr %11, align 8, !tbaa !63
  %60 = load ptr, ptr %3, align 8, !tbaa !6
  %61 = load ptr, ptr %11, align 8, !tbaa !63
  %62 = getelementptr inbounds nuw %struct.dt_module_param_t, ptr %61, i32 0, i32 0
  store ptr %60, ptr %62, align 8, !tbaa !65
  %63 = load ptr, ptr %6, align 8, !tbaa !30
  %64 = load ptr, ptr %7, align 8, !tbaa !39
  %65 = getelementptr inbounds nuw %struct.dt_introspection_type_header_t, ptr %64, i32 0, i32 6
  %66 = load i64, ptr %65, align 8, !tbaa !42
  %67 = getelementptr inbounds nuw i8, ptr %63, i64 %66
  %68 = load ptr, ptr %11, align 8, !tbaa !63
  %69 = getelementptr inbounds nuw %struct.dt_module_param_t, ptr %68, i32 0, i32 1
  store ptr %67, ptr %69, align 8, !tbaa !67
  %70 = load ptr, ptr %8, align 8, !tbaa !41
  %71 = call ptr @g_type_check_instance_cast(ptr noundef %70, i64 noundef 80)
  %72 = load ptr, ptr %11, align 8, !tbaa !63
  %73 = call i64 @g_signal_connect_data(ptr noundef %71, ptr noundef @.str.9, ptr noundef @_iop_toggle_callback, ptr noundef %72, ptr noundef @g_free, i32 noundef 0)
  %74 = load ptr, ptr %7, align 8, !tbaa !39
  %75 = load ptr, ptr %5, align 8, !tbaa !11
  call void @_store_intro_section(ptr noundef %74, ptr noundef %75)
  %76 = load ptr, ptr %3, align 8, !tbaa !6
  %77 = load ptr, ptr %5, align 8, !tbaa !11
  %78 = load ptr, ptr %9, align 8, !tbaa !11
  %79 = load ptr, ptr %8, align 8, !tbaa !41
  %80 = call ptr @dt_action_define_iop(ptr noundef %76, ptr noundef %77, ptr noundef %78, ptr noundef %79, ptr noundef @dt_action_def_toggle)
  call void @llvm.lifetime.end.p0(i64 8, ptr %11) #9
  call void @llvm.lifetime.end.p0(i64 8, ptr %10) #9
  br label %86

81:                                               ; preds = %26, %2
  %82 = load ptr, ptr %4, align 8, !tbaa !11
  %83 = call noalias ptr (ptr, ...) @g_strdup_printf(ptr noundef @.str.10, ptr noundef %82)
  store ptr %83, ptr %9, align 8, !tbaa !11
  %84 = load ptr, ptr %9, align 8, !tbaa !11
  %85 = call ptr @gtk_check_button_new_with_label(ptr noundef %84)
  store ptr %85, ptr %8, align 8, !tbaa !41
  br label %86

86:                                               ; preds = %81, %46
  %87 = load ptr, ptr %9, align 8, !tbaa !11
  call void @g_free(ptr noundef %87)
  %88 = load ptr, ptr %3, align 8, !tbaa !6
  %89 = getelementptr inbounds nuw %struct.dt_iop_module_t, ptr %88, i32 0, i32 90
  %90 = load ptr, ptr %89, align 16, !tbaa !47
  %91 = icmp ne ptr %90, null
  br i1 %91, label %96, label %92

92:                                               ; preds = %86
  %93 = call ptr @gtk_box_new(i32 noundef 1, i32 noundef 0)
  %94 = load ptr, ptr %3, align 8, !tbaa !6
  %95 = getelementptr inbounds nuw %struct.dt_iop_module_t, ptr %94, i32 0, i32 90
  store ptr %93, ptr %95, align 16, !tbaa !47
  br label %96

96:                                               ; preds = %92, %86
  %97 = load ptr, ptr %3, align 8, !tbaa !6
  %98 = getelementptr inbounds nuw %struct.dt_iop_module_t, ptr %97, i32 0, i32 90
  %99 = load ptr, ptr %98, align 16, !tbaa !47
  %100 = call i64 @gtk_box_get_type() #12
  %101 = call ptr @g_type_check_instance_cast(ptr noundef %99, i64 noundef %100)
  %102 = load ptr, ptr %8, align 8, !tbaa !41
  store ptr %102, ptr %12, align 8, !tbaa !30
  %103 = getelementptr inbounds ptr, ptr %12, i64 1
  store ptr inttoptr (i64 -1 to ptr), ptr %103, align 8, !tbaa !30
  %104 = getelementptr inbounds [2 x ptr], ptr %12, i64 0, i64 0
  %105 = call ptr @dt_gui_box_add(ptr noundef @.str.5, i32 noundef 277, ptr noundef @__FUNCTION__.dt_bauhaus_toggle_from_params, ptr noundef %101, ptr noundef %104)
  %106 = load ptr, ptr %8, align 8, !tbaa !41
  call void @llvm.lifetime.end.p0(i64 8, ptr %9) #9
  call void @llvm.lifetime.end.p0(i64 8, ptr %8) #9
  call void @llvm.lifetime.end.p0(i64 8, ptr %7) #9
  call void @llvm.lifetime.end.p0(i64 8, ptr %6) #9
  call void @llvm.lifetime.end.p0(i64 8, ptr %5) #9
  ret ptr %106
}