; Function Attrs: nounwind uwtable
define ptr @dt_bauhaus_toggle_from_params(ptr noundef %0, ptr noundef %1) local_unnamed_addr #0 {
  %3 = alloca [2 x ptr], align 8
  %4 = load i32, ptr %0, align 16, !tbaa !6
  %.not.i = icmp eq i32 %4, 8
  br i1 %.not.i, label %5, label %_section_from_package.exit

5:                                                ; preds = %2
  %6 = getelementptr inbounds nuw i8, ptr %0, i64 8
  %7 = load ptr, ptr %6, align 8, !tbaa !27
  %8 = getelementptr inbounds nuw i8, ptr %0, i64 16
  %9 = load ptr, ptr %8, align 8, !tbaa !30
  br label %_section_from_package.exit

_section_from_package.exit:                       ; preds = %2, %5
  %.037 = phi ptr [ %7, %5 ], [ %0, %2 ]
  %.0.i = phi ptr [ %9, %5 ], [ null, %2 ]
  %10 = getelementptr inbounds nuw i8, ptr %.037, i64 680
  %11 = load ptr, ptr %10, align 8, !tbaa !31
  %12 = getelementptr inbounds nuw i8, ptr %.037, i64 944
  %13 = load ptr, ptr %12, align 16, !tbaa !34
  %14 = getelementptr inbounds nuw i8, ptr %13, i64 472
  %15 = load ptr, ptr %14, align 8, !tbaa !35
  %16 = tail call ptr %15(ptr noundef %1) #11
  %.not = icmp eq ptr %16, null
  br i1 %.not, label %60, label %17

17:                                               ; preds = %_section_from_package.exit
  %18 = load i32, ptr %16, align 8, !tbaa !39
  %19 = icmp eq i32 %18, 14
  br i1 %19, label %20, label %60

20:                                               ; preds = %17
  %21 = getelementptr inbounds nuw i8, ptr %16, i64 32
  %22 = load ptr, ptr %21, align 8, !tbaa !39
  %23 = load i8, ptr %22, align 1, !tbaa !39
  %.not28 = icmp eq i8 %23, 0
  br i1 %.not28, label %26, label %24

24:                                               ; preds = %20
  %25 = tail call noalias ptr @g_strdup(ptr noundef nonnull %22) #11
  br label %28

26:                                               ; preds = %20
  %27 = tail call ptr @dt_util_str_replace(ptr noundef %1, ptr noundef nonnull @.str.2, ptr noundef nonnull @.str.3) #11
  br label %28

28:                                               ; preds = %26, %24
  %29 = phi ptr [ %25, %24 ], [ %27, %26 ]
  %30 = tail call ptr @dcgettext(ptr noundef null, ptr noundef %29, i32 noundef 5) #11
  %31 = tail call ptr @gtk_label_new(ptr noundef %30) #11
  %32 = tail call i64 @gtk_label_get_type() #14
  %33 = tail call ptr @g_type_check_instance_cast(ptr noundef %31, i64 noundef %32) #11
  tail call void @gtk_label_set_ellipsize(ptr noundef %33, i32 noundef 3) #11
  %34 = tail call ptr @gtk_check_button_new() #11
  %35 = tail call i64 @gtk_container_get_type() #14
  %36 = tail call ptr @g_type_check_instance_cast(ptr noundef %34, i64 noundef %35) #11
  tail call void @gtk_container_add(ptr noundef %36, ptr noundef %31) #11
  %37 = tail call noalias dereferenceable_or_null(16) ptr @g_malloc(i64 noundef 16) #13
  store ptr %.037, ptr %37, align 8, !tbaa !51
  %38 = getelementptr inbounds nuw i8, ptr %16, i64 48
  %39 = load i64, ptr %38, align 8, !tbaa !39
  %40 = getelementptr inbounds nuw i8, ptr %11, i64 %39
  %41 = getelementptr inbounds nuw i8, ptr %37, i64 8
  store ptr %40, ptr %41, align 8, !tbaa !53
  %42 = tail call ptr @g_type_check_instance_cast(ptr noundef %34, i64 noundef 80) #11
  %43 = tail call i64 @g_signal_connect_data(ptr noundef %42, ptr noundef nonnull @.str.9, ptr noundef nonnull @_iop_toggle_callback, ptr noundef nonnull %37, ptr noundef nonnull @g_free, i32 noundef 0) #11
  %.not.i30 = icmp eq ptr %.0.i, null
  br i1 %.not.i30, label %_store_intro_section.exit, label %44

44:                                               ; preds = %28
  %45 = getelementptr inbounds nuw i8, ptr %16, i64 56
  %46 = load ptr, ptr %45, align 8, !tbaa !39
  %47 = getelementptr inbounds nuw i8, ptr %46, i64 448
  %48 = load ptr, ptr %47, align 8, !tbaa !45
  %49 = tail call ptr %48() #11
  %50 = getelementptr inbounds nuw i8, ptr %49, i64 48
  %51 = load ptr, ptr %50, align 8, !tbaa !46
  %.not7.i = icmp eq ptr %51, null
  br i1 %.not7.i, label %52, label %54

52:                                               ; preds = %44
  %53 = tail call ptr @g_hash_table_new(ptr noundef null, ptr noundef null) #11
  store ptr %53, ptr %50, align 8, !tbaa !46
  br label %54

54:                                               ; preds = %52, %44
  %55 = phi ptr [ %53, %52 ], [ %51, %44 ]
  %56 = load i64, ptr %38, align 8, !tbaa !39
  %57 = inttoptr i64 %56 to ptr
  %58 = tail call i32 @g_hash_table_insert(ptr noundef %55, ptr noundef %57, ptr noundef nonnull %.0.i) #11
  br label %_store_intro_section.exit

_store_intro_section.exit:                        ; preds = %28, %54
  %59 = tail call ptr @dt_action_define_iop(ptr noundef nonnull %.037, ptr noundef %.0.i, ptr noundef %29, ptr noundef %34, ptr noundef nonnull @dt_action_def_toggle) #11
  br label %63

60:                                               ; preds = %17, %_section_from_package.exit
  %61 = tail call noalias ptr (ptr, ...) @g_strdup_printf(ptr noundef nonnull @.str.10, ptr noundef %1) #11
  %62 = tail call ptr @gtk_check_button_new_with_label(ptr noundef %61) #11
  br label %63

63:                                               ; preds = %60, %_store_intro_section.exit
  %.026 = phi ptr [ %29, %_store_intro_section.exit ], [ %61, %60 ]
  %.0 = phi ptr [ %34, %_store_intro_section.exit ], [ %62, %60 ]
  tail call void @g_free(ptr noundef %.026) #11
  %64 = getelementptr inbounds nuw i8, ptr %.037, i64 816
  %65 = load ptr, ptr %64, align 16, !tbaa !47
  %.not29 = icmp eq ptr %65, null
  br i1 %.not29, label %66, label %68

66:                                               ; preds = %63
  %67 = tail call ptr @gtk_box_new(i32 noundef 1, i32 noundef 0) #11
  store ptr %67, ptr %64, align 16, !tbaa !47
  br label %68

68:                                               ; preds = %66, %63
  %69 = phi ptr [ %67, %66 ], [ %65, %63 ]
  %70 = tail call i64 @gtk_box_get_type() #14
  %71 = tail call ptr @g_type_check_instance_cast(ptr noundef %69, i64 noundef %70) #11
  store ptr %.0, ptr %3, align 8, !tbaa !48
  %72 = getelementptr inbounds nuw i8, ptr %3, i64 8
  store ptr inttoptr (i64 -1 to ptr), ptr %72, align 8, !tbaa !48
  %73 = call ptr @dt_gui_box_add(ptr noundef nonnull @.str.5, i32 noundef 277, ptr noundef nonnull @__FUNCTION__.dt_bauhaus_toggle_from_params, ptr noundef %71, ptr noundef nonnull %3) #11
  ret ptr %.0
}